target datalayout = "e-m:e-p270:32:32-p271:32:32-p272:64:64-i64:64-i128:128-f80:128-n8:16:32:64-S128"
target triple = "x86_64-pc-linux-gnu"

; Function Attrs: nounwind uwtable
define i32 @wc_hash2mgf(i32 noundef %0) #0 {
  %2 = alloca i32, align 4
  %3 = alloca i32, align 4
  store i32 %0, ptr %3, align 4, !tbaa !7
  %4 = load i32, ptr %3, align 4, !tbaa !7
  switch i32 %4, label %12 [
    i32 0, label %5
    i32 4, label %6
    i32 5, label %7
    i32 6, label %8
    i32 7, label %9
    i32 8, label %10
    i32 1, label %11
    i32 2, label %11
    i32 3, label %11
    i32 9, label %11
    i32 16, label %11
    i32 17, label %11
    i32 10, label %11
    i32 11, label %11
    i32 12, label %11
    i32 13, label %11
    i32 14, label %11
    i32 15, label %11
  ]

5:                                                ; preds = %1
  store i32 0, ptr %2, align 4
  br label %16

6:                                                ; preds = %1
  store i32 26, ptr %2, align 4
  br label %16

7:                                                ; preds = %1
  store i32 4, ptr %2, align 4
  br label %16

8:                                                ; preds = %1
  store i32 1, ptr %2, align 4
  br label %16

9:                                                ; preds = %1
  store i32 2, ptr %2, align 4
  br label %16

10:                                               ; preds = %1
  store i32 3, ptr %2, align 4
  br label %16

11:                                               ; preds = %1, %1, %1, %1, %1, %1, %1, %1, %1, %1, %1, %1
  br label %12

12:                                               ; preds = %1, %11
  br label %13

13:                                               ; preds = %12
  br label %14

14:                                               ; preds = %13
  br label %15

15:                                               ; preds = %14
  store i32 0, ptr %2, align 4
  br label %16

16:                                               ; preds = %15, %10, %9, %8, %7, %6, %5
  %17 = load i32, ptr %2, align 4
  ret i32 %17
}